; Function Attrs: mustprogress nofree nounwind willreturn memory(argmem: read) uwtable
define internal fastcc noundef range(i32 0, 10) i32 @_ZL12parseBPFArchN4llvm9StringRefE(ptr nocapture readonly %0, i64 %1) unnamed_addr #2 {
  switch i64 %1, label %_ZN4llvmeqENS_9StringRefES0_.exit.thread [
    i64 3, label %_ZN4llvmeqENS_9StringRefES0_.exit
    i64 6, label %_ZN4llvmeqENS_9StringRefES0_.exit17
    i64 5, label %_ZN4llvmeqENS_9StringRefES0_.exit21
  ]

_ZN4llvmeqENS_9StringRefES0_.exit:                ; preds = %2
  %bcmp.i = tail call i32 @bcmp(ptr noundef nonnull dereferenceable(3) %0, ptr noundef nonnull dereferenceable(3) @.str.76, i64 3)
  %3 = icmp eq i32 %bcmp.i, 0
  %spec.select55 = select i1 %3, i32 8, i32 0
  br label %_ZN4llvmeqENS_9StringRefES0_.exit.thread

_ZN4llvmeqENS_9StringRefES0_.exit17:              ; preds = %2
  %bcmp.i16 = tail call i32 @bcmp(ptr %0, ptr nonnull @.str.209, i64 %1)
  %4 = icmp eq i32 %bcmp.i16, 0
  br i1 %4, label %_ZN4llvmeqENS_9StringRefES0_.exit.thread, label %_ZN4llvmeqENS_9StringRefES0_.exit25

_ZN4llvmeqENS_9StringRefES0_.exit21:              ; preds = %2
  %bcmp.i20 = tail call i32 @bcmp(ptr %0, ptr nonnull @.str.11, i64 %1)
  %5 = icmp eq i32 %bcmp.i20, 0
  br i1 %5, label %_ZN4llvmeqENS_9StringRefES0_.exit.thread, label %_ZN4llvmeqENS_9StringRefES0_.exit29

_ZN4llvmeqENS_9StringRefES0_.exit25:              ; preds = %_ZN4llvmeqENS_9StringRefES0_.exit17
  %bcmp.i24 = tail call i32 @bcmp(ptr %0, ptr nonnull @.str.210, i64 %1)
  %6 = icmp eq i32 %bcmp.i24, 0
  %spec.select56 = select i1 %6, i32 8, i32 0
  br label %_ZN4llvmeqENS_9StringRefES0_.exit.thread

_ZN4llvmeqENS_9StringRefES0_.exit29:              ; preds = %_ZN4llvmeqENS_9StringRefES0_.exit21
  %bcmp.i28 = tail call i32 @bcmp(ptr %0, ptr nonnull @.str.12, i64 %1)
  %bcmp.i28.fr = freeze i32 %bcmp.i28
  %7 = icmp eq i32 %bcmp.i28.fr, 0
  %spec.select = select i1 %7, i32 8, i32 0
  br label %_ZN4llvmeqENS_9StringRefES0_.exit.thread

_ZN4llvmeqENS_9StringRefES0_.exit.thread:         ; preds = %_ZN4llvmeqENS_9StringRefES0_.exit25, %_ZN4llvmeqENS_9StringRefES0_.exit, %_ZN4llvmeqENS_9StringRefES0_.exit29, %2, %_ZN4llvmeqENS_9StringRefES0_.exit17, %_ZN4llvmeqENS_9StringRefES0_.exit21
  %.0 = phi i32 [ 9, %_ZN4llvmeqENS_9StringRefES0_.exit21 ], [ 9, %_ZN4llvmeqENS_9StringRefES0_.exit17 ], [ 0, %2 ], [ %spec.select, %_ZN4llvmeqENS_9StringRefES0_.exit29 ], [ %spec.select55, %_ZN4llvmeqENS_9StringRefES0_.exit ], [ %spec.select56, %_ZN4llvmeqENS_9StringRefES0_.exit25 ]
  ret i32 %.0
}